target datalayout = "e-m:e-p270:32:32-p271:32:32-p272:64:64-i64:64-i128:128-f80:128-n8:16:32:64-S128"
target triple = "x86_64-pc-linux-gnu"

%"class.absl::lts_20240722::log_internal::NullStream" = type { i8 }
%"class.absl::lts_20240722::log_internal::Voidify" = type { i8 }
%"class.absl::lts_20240722::log_internal::LogMessageFatal" = type { %"class.absl::lts_20240722::log_internal::LogMessage" }
%"class.absl::lts_20240722::log_internal::LogMessage" = type { %"class.absl::lts_20240722::base_internal::ErrnoSaver", %"class.std::unique_ptr" }
%"class.absl::lts_20240722::base_internal::ErrnoSaver" = type { i32 }
%"class.std::unique_ptr" = type { %"struct.std::__uniq_ptr_data" }
%"struct.std::__uniq_ptr_data" = type { %"class.std::__uniq_ptr_impl" }
%"class.std::__uniq_ptr_impl" = type { %"class.std::tuple" }
%"class.std::tuple" = type { %"struct.std::_Tuple_impl" }
%"struct.std::_Tuple_impl" = type { %"struct.std::_Head_base.1" }
%"struct.std::_Head_base.1" = type { ptr }
%"class.std::basic_string_view" = type { i64, ptr }
%"class.grpc_core::HPackEncoderTable" = type { i32, i32, i32, i32, %"class.std::vector" }
%"class.std::vector" = type { %"struct.std::_Vector_base" }
%"struct.std::_Vector_base" = type { %"struct.std::_Vector_base<unsigned short, std::allocator<unsigned short>>::_Vector_impl" }
%"struct.std::_Vector_base<unsigned short, std::allocator<unsigned short>>::_Vector_impl" = type { %"struct.std::_Vector_base<unsigned short, std::allocator<unsigned short>>::_Vector_impl_data" }
%"struct.std::_Vector_base<unsigned short, std::allocator<unsigned short>>::_Vector_impl_data" = type { ptr, ptr, ptr }

@.str = private unnamed_addr constant [150 x i8] c"generated/home/dtcxzyw/WorkSpace/Projects/compilers/llvm-opt-benchmark/bench/grpc/grpc/src/core/ext/transport/chttp2/transport/hpack_encoder_table.cc\00", align 1
@.str.1 = private unnamed_addr constant [33 x i8] c"table_elems_ < elem_size_.size()\00", align 1

; Function Attrs: noinline noreturn nounwind uwtable
define linkonce_odr hidden void @__clang_call_terminate(ptr noundef %0) #8 comdat {
  %2 = call ptr @__cxa_begin_catch(ptr %0) #14
  call void @_ZSt9terminatev() #16
  unreachable
}

; Function Attrs: mustprogress nounwind uwtable
define linkonce_odr noundef i64 @_ZNSt11char_traitsIcE6lengthEPKc(ptr noundef %0) #2 comdat align 2 {
  %2 = alloca ptr, align 8
  store ptr %0, ptr %2, align 8, !tbaa !42
  %3 = load ptr, ptr %2, align 8, !tbaa !42
  %4 = call i64 @strlen(ptr noundef %3) #14
  ret i64 %4
}

; Function Attrs: mustprogress nounwind uwtable
define linkonce_odr noundef nonnull align 2 dereferenceable(2) ptr @_ZNSt6vectorItSaItEEixEm(ptr noundef nonnull align 8 dereferenceable(24) %0, i64 noundef %1) #2 comdat align 2 {
  %3 = alloca ptr, align 8
  %4 = alloca i64, align 8
  store ptr %0, ptr %3, align 8, !tbaa !32
  store i64 %1, ptr %4, align 8, !tbaa !8
  %5 = load ptr, ptr %3, align 8
  %6 = getelementptr inbounds nuw %"struct.std::_Vector_base", ptr %5, i32 0, i32 0
  %7 = getelementptr inbounds nuw %"struct.std::_Vector_base<unsigned short, std::allocator<unsigned short>>::_Vector_impl_data", ptr %6, i32 0, i32 0
  %8 = load ptr, ptr %7, align 8, !tbaa !35
  %9 = load i64, ptr %4, align 8, !tbaa !8
  %10 = getelementptr inbounds nuw i16, ptr %8, i64 %9
  ret ptr %10
}

; Function Attrs: mustprogress nounwind uwtable
define linkonce_odr void @_ZNKO4absl12lts_2024072212log_internal7VoidifyaaINS1_10LogMessageEEEvRKT_(ptr noundef nonnull align 1 dereferenceable(1) %0, ptr noundef nonnull align 8 dereferenceable(16) %1) #2 comdat align 2 {
  %3 = alloca ptr, align 8
  %4 = alloca ptr, align 8
  store ptr %0, ptr %3, align 8, !tbaa !36
  store ptr %1, ptr %4, align 8, !tbaa !38
  ret void
}

; Function Attrs: mustprogress nounwind uwtable
define linkonce_odr noundef nonnull align 8 dereferenceable(16) ptr @_ZN4absl12lts_2024072212log_internal10LogMessage14InternalStreamEv(ptr noundef nonnull align 8 dereferenceable(16) %0) #2 comdat align 2 {
  %2 = alloca ptr, align 8
  store ptr %0, ptr %2, align 8, !tbaa !38
  %3 = load ptr, ptr %2, align 8
  ret ptr %3
}

; Function Attrs: mustprogress nounwind uwtable
define linkonce_odr void @_ZNSt17basic_string_viewIcSt11char_traitsIcEEC2EPKc(ptr noundef nonnull align 8 dereferenceable(16) %0, ptr noundef nonnull %1) unnamed_addr #2 comdat align 2 personality ptr @__gxx_personality_v0 {
  %3 = alloca ptr, align 8
  %4 = alloca ptr, align 8
  store ptr %0, ptr %3, align 8, !tbaa !40
  store ptr %1, ptr %4, align 8, !tbaa !42
  %5 = load ptr, ptr %3, align 8
  %6 = getelementptr inbounds nuw %"class.std::basic_string_view", ptr %5, i32 0, i32 0
  %7 = load ptr, ptr %4, align 8, !tbaa !42
  %8 = invoke noundef i64 @_ZNSt11char_traitsIcE6lengthEPKc(ptr noundef %7)
          to label %9 unwind label %12

9:                                                ; preds = %2
  store i64 %8, ptr %6, align 8, !tbaa !44
  %10 = getelementptr inbounds nuw %"class.std::basic_string_view", ptr %5, i32 0, i32 1
  %11 = load ptr, ptr %4, align 8, !tbaa !42
  store ptr %11, ptr %10, align 8, !tbaa !46
  ret void

12:                                               ; preds = %2
  %13 = landingpad { ptr, i32 }
          catch ptr null
  %14 = extractvalue { ptr, i32 } %13, 0
  call void @__clang_call_terminate(ptr %14) #16
  unreachable
}

; Function Attrs: mustprogress nounwind uwtable
define linkonce_odr noundef i64 @_ZNKSt6vectorItSaItEE4sizeEv(ptr noundef nonnull align 8 dereferenceable(24) %0) #2 comdat align 2 {
  %2 = alloca ptr, align 8
  store ptr %0, ptr %2, align 8, !tbaa !32
  %3 = load ptr, ptr %2, align 8
  %4 = getelementptr inbounds nuw %"struct.std::_Vector_base", ptr %3, i32 0, i32 0
  %5 = getelementptr inbounds nuw %"struct.std::_Vector_base<unsigned short, std::allocator<unsigned short>>::_Vector_impl_data", ptr %4, i32 0, i32 1
  %6 = load ptr, ptr %5, align 8, !tbaa !34
  %7 = getelementptr inbounds nuw %"struct.std::_Vector_base", ptr %3, i32 0, i32 0
  %8 = getelementptr inbounds nuw %"struct.std::_Vector_base<unsigned short, std::allocator<unsigned short>>::_Vector_impl_data", ptr %7, i32 0, i32 0
  %9 = load ptr, ptr %8, align 8, !tbaa !35
  %10 = ptrtoint ptr %6 to i64
  %11 = ptrtoint ptr %9 to i64
  %12 = sub i64 %10, %11
  %13 = sdiv exact i64 %12, 2
  ret i64 %13
}

; Function Attrs: mustprogress nounwind uwtable
define linkonce_odr noundef nonnull align 1 dereferenceable(1) ptr @_ZN4absl12lts_2024072212log_internal10NullStream14InternalStreamEv(ptr noundef nonnull align 1 dereferenceable(1) %0) #2 comdat align 2 {
  %2 = alloca ptr, align 8
  store ptr %0, ptr %2, align 8, !tbaa !28
  %3 = load ptr, ptr %2, align 8
  ret ptr %3
}

; Function Attrs: mustprogress uwtable
define noundef i32 @_ZN9grpc_core17HPackEncoderTable13AllocateIndexEm(ptr noundef nonnull align 8 dereferenceable(40) %0, i64 noundef %1) #0 align 2 personality ptr @__gxx_personality_v0 {
  %3 = alloca i32, align 4
  %4 = alloca ptr, align 8
  %5 = alloca i64, align 8
  %6 = alloca %"class.absl::lts_20240722::log_internal::NullStream", align 1
  %7 = alloca i32, align 4
  %8 = alloca i32, align 4
  %9 = alloca %"class.absl::lts_20240722::log_internal::Voidify", align 1
  %10 = alloca %"class.absl::lts_20240722::log_internal::LogMessageFatal", align 8
  %11 = alloca i1, align 1
  %12 = alloca %"class.std::basic_string_view", align 8
  %13 = alloca i1, align 1
  %14 = alloca ptr, align 8
  %15 = alloca i32, align 4
  store ptr %0, ptr %4, align 8, !tbaa !3
  store i64 %1, ptr %5, align 8, !tbaa !8
  %16 = load ptr, ptr %4, align 8
  br label %17

17:                                               ; preds = %18, %2
  br i1 false, label %18, label %20

18:                                               ; preds = %17
  call void @llvm.lifetime.start.p0(i64 1, ptr %6) #14
  %19 = call noundef nonnull align 1 dereferenceable(1) ptr @_ZN4absl12lts_2024072212log_internal10NullStream14InternalStreamEv(ptr noundef nonnull align 1 dereferenceable(1) %6)
  call void @llvm.lifetime.end.p0(i64 1, ptr %6) #14
  br label %17, !llvm.loop !10

20:                                               ; preds = %17
  call void @llvm.lifetime.start.p0(i64 4, ptr %7) #14
  %21 = getelementptr inbounds nuw %"class.grpc_core::HPackEncoderTable", ptr %16, i32 0, i32 0
  %22 = load i32, ptr %21, align 8, !tbaa !12
  %23 = getelementptr inbounds nuw %"class.grpc_core::HPackEncoderTable", ptr %16, i32 0, i32 2
  %24 = load i32, ptr %23, align 8, !tbaa !20
  %25 = add i32 %22, %24
  %26 = add i32 %25, 1
  store i32 %26, ptr %7, align 4, !tbaa !21
  %27 = load i64, ptr %5, align 8, !tbaa !8
  %28 = getelementptr inbounds nuw %"class.grpc_core::HPackEncoderTable", ptr %16, i32 0, i32 1
  %29 = load i32, ptr %28, align 4, !tbaa !22
  %30 = zext i32 %29 to i64
  %31 = icmp ugt i64 %27, %30
  br i1 %31, label %32, label %39

32:                                               ; preds = %20
  br label %33

33:                                               ; preds = %37, %32
  %34 = getelementptr inbounds nuw %"class.grpc_core::HPackEncoderTable", ptr %16, i32 0, i32 3
  %35 = load i32, ptr %34, align 4, !tbaa !23
  %36 = icmp ugt i32 %35, 0
  br i1 %36, label %37, label %38

37:                                               ; preds = %33
  call void @_ZN9grpc_core17HPackEncoderTable8EvictOneEv(ptr noundef nonnull align 8 dereferenceable(40) %16)
  br label %33, !llvm.loop !24

38:                                               ; preds = %33
  store i32 0, ptr %3, align 4
  store i32 1, ptr %8, align 4
  br label %109

39:                                               ; preds = %20
  br label %40

40:                                               ; preds = %50, %39
  %41 = getelementptr inbounds nuw %"class.grpc_core::HPackEncoderTable", ptr %16, i32 0, i32 3
  %42 = load i32, ptr %41, align 4, !tbaa !23
  %43 = zext i32 %42 to i64
  %44 = load i64, ptr %5, align 8, !tbaa !8
  %45 = add i64 %43, %44
  %46 = getelementptr inbounds nuw %"class.grpc_core::HPackEncoderTable", ptr %16, i32 0, i32 1
  %47 = load i32, ptr %46, align 4, !tbaa !22
  %48 = zext i32 %47 to i64
  %49 = icmp ugt i64 %45, %48
  br i1 %49, label %50, label %51

50:                                               ; preds = %40
  call void @_ZN9grpc_core17HPackEncoderTable8EvictOneEv(ptr noundef nonnull align 8 dereferenceable(40) %16)
  br label %40, !llvm.loop !25

51:                                               ; preds = %40
  %52 = getelementptr inbounds nuw %"class.grpc_core::HPackEncoderTable", ptr %16, i32 0, i32 2
  %53 = load i32, ptr %52, align 8, !tbaa !20
  %54 = zext i32 %53 to i64
  %55 = getelementptr inbounds nuw %"class.grpc_core::HPackEncoderTable", ptr %16, i32 0, i32 4
  %56 = call noundef i64 @_ZNKSt6vectorItSaItEE4sizeEv(ptr noundef nonnull align 8 dereferenceable(24) %55) #14
  %57 = icmp ult i64 %54, %56
  %58 = xor i1 %57, true
  %59 = zext i1 %58 to i64
  %60 = call i64 @llvm.expect.i64(i64 %59, i64 0)
  %61 = icmp ne i64 %60, 0
  call void @llvm.lifetime.start.p0(i64 1, ptr %9) #14
  store i1 false, ptr %11, align 1
  store i1 false, ptr %13, align 1
  br i1 %61, label %63, label %62

62:                                               ; preds = %51
  br label %71

63:                                               ; preds = %51
  call void @llvm.lifetime.start.p0(i64 16, ptr %10) #14
  store i1 true, ptr %11, align 1
  call void @_ZNSt17basic_string_viewIcSt11char_traitsIcEEC2EPKc(ptr noundef nonnull align 8 dereferenceable(16) %12, ptr noundef @.str.1) #14
  %64 = getelementptr inbounds nuw { i64, ptr }, ptr %12, i32 0, i32 0
  %65 = load i64, ptr %64, align 8
  %66 = getelementptr inbounds nuw { i64, ptr }, ptr %12, i32 0, i32 1
  %67 = load ptr, ptr %66, align 8
  call void @_ZN4absl12lts_2024072212log_internal15LogMessageFatalC1EPKciSt17basic_string_viewIcSt11char_traitsIcEE(ptr noundef nonnull align 8 dereferenceable(16) %10, ptr noundef @.str, i32 noundef 44, i64 %65, ptr %67) #15
  store i1 true, ptr %13, align 1
  %68 = invoke noundef nonnull align 8 dereferenceable(16) ptr @_ZN4absl12lts_2024072212log_internal10LogMessage14InternalStreamEv(ptr noundef nonnull align 8 dereferenceable(16) %10)
          to label %69 unwind label %74

69:                                               ; preds = %63
  invoke void @_ZNKO4absl12lts_2024072212log_internal7VoidifyaaINS1_10LogMessageEEEvRKT_(ptr noundef nonnull align 1 dereferenceable(1) %9, ptr noundef nonnull align 8 dereferenceable(16) %68)
          to label %70 unwind label %74

70:                                               ; preds = %69
  br label %71

71:                                               ; preds = %70, %62
  %72 = load i1, ptr %13, align 1
  br i1 %72, label %73, label %80

73:                                               ; preds = %71
  call void @_ZN4absl12lts_2024072212log_internal15LogMessageFatalD1Ev(ptr noundef nonnull align 8 dereferenceable(16) %10) #16
  unreachable

74:                                               ; preds = %69, %63
  %75 = landingpad { ptr, i32 }
          cleanup
  %76 = extractvalue { ptr, i32 } %75, 0
  store ptr %76, ptr %14, align 8
  %77 = extractvalue { ptr, i32 } %75, 1
  store i32 %77, ptr %15, align 4
  %78 = load i1, ptr %13, align 1
  br i1 %78, label %103, label %105

79:                                               ; No predecessors!
  br label %80

80:                                               ; preds = %79, %71
  %81 = load i1, ptr %11, align 1
  br i1 %81, label %82, label %83

82:                                               ; preds = %80
  call void @llvm.lifetime.end.p0(i64 16, ptr %10) #14
  br label %83

83:                                               ; preds = %82, %80
  call void @llvm.lifetime.end.p0(i64 1, ptr %9) #14
  %84 = load i64, ptr %5, align 8, !tbaa !8
  %85 = trunc i64 %84 to i16
  %86 = getelementptr inbounds nuw %"class.grpc_core::HPackEncoderTable", ptr %16, i32 0, i32 4
  %87 = load i32, ptr %7, align 4, !tbaa !21
  %88 = zext i32 %87 to i64
  %89 = getelementptr inbounds nuw %"class.grpc_core::HPackEncoderTable", ptr %16, i32 0, i32 4
  %90 = call noundef i64 @_ZNKSt6vectorItSaItEE4sizeEv(ptr noundef nonnull align 8 dereferenceable(24) %89) #14
  %91 = urem i64 %88, %90
  %92 = call noundef nonnull align 2 dereferenceable(2) ptr @_ZNSt6vectorItSaItEEixEm(ptr noundef nonnull align 8 dereferenceable(24) %86, i64 noundef %91) #14
  store i16 %85, ptr %92, align 2, !tbaa !26
  %93 = load i64, ptr %5, align 8, !tbaa !8
  %94 = getelementptr inbounds nuw %"class.grpc_core::HPackEncoderTable", ptr %16, i32 0, i32 3
  %95 = load i32, ptr %94, align 4, !tbaa !23
  %96 = zext i32 %95 to i64
  %97 = add i64 %96, %93
  %98 = trunc i64 %97 to i32
  store i32 %98, ptr %94, align 4, !tbaa !23
  %99 = getelementptr inbounds nuw %"class.grpc_core::HPackEncoderTable", ptr %16, i32 0, i32 2
  %100 = load i32, ptr %99, align 8, !tbaa !20
  %101 = add i32 %100, 1
  store i32 %101, ptr %99, align 8, !tbaa !20
  %102 = load i32, ptr %7, align 4, !tbaa !21
  store i32 %102, ptr %3, align 4
  store i32 1, ptr %8, align 4
  br label %109

103:                                              ; preds = %74
  call void @_ZN4absl12lts_2024072212log_internal15LogMessageFatalD1Ev(ptr noundef nonnull align 8 dereferenceable(16) %10) #16
  unreachable

104:                                              ; No predecessors!
  br label %105

105:                                              ; preds = %104, %74
  %106 = load i1, ptr %11, align 1
  br i1 %106, label %107, label %108

107:                                              ; preds = %105
  call void @llvm.lifetime.end.p0(i64 16, ptr %10) #14
  br label %108

108:                                              ; preds = %107, %105
  call void @llvm.lifetime.end.p0(i64 1, ptr %9) #14
  call void @llvm.lifetime.end.p0(i64 4, ptr %7) #14
  br label %111

109:                                              ; preds = %83, %38
  call void @llvm.lifetime.end.p0(i64 4, ptr %7) #14
  %110 = load i32, ptr %3, align 4
  ret i32 %110

111:                                              ; preds = %108
  %112 = load ptr, ptr %14, align 8
  %113 = load i32, ptr %15, align 4
  %114 = insertvalue { ptr, i32 } poison, ptr %112, 0
  %115 = insertvalue { ptr, i32 } %114, i32 %113, 1
  resume { ptr, i32 } %115
}