; Function Attrs: mustprogress uwtable
define noundef i32 @_ZN9grpc_core17HPackEncoderTable13AllocateIndexEm(ptr noundef nonnull align 8 captures(none) dereferenceable(40) %0, i64 noundef %1) local_unnamed_addr #0 align 2 personality ptr @__gxx_personality_v0 {
  %3 = alloca %"class.absl::lts_20240722::log_internal::LogMessageFatal", align 8
  %4 = load i32, ptr %0, align 8, !tbaa !3
  %5 = getelementptr inbounds nuw i8, ptr %0, i64 8
  %6 = load i32, ptr %5, align 8, !tbaa !14
  %7 = add i32 %4, 1
  %8 = add i32 %7, %6
  %9 = getelementptr inbounds nuw i8, ptr %0, i64 4
  %10 = load i32, ptr %9, align 4, !tbaa !15
  %11 = zext i32 %10 to i64
  %12 = icmp ugt i64 %1, %11
  %13 = getelementptr inbounds nuw i8, ptr %0, i64 12
  %14 = load i32, ptr %13, align 4, !tbaa !16
  br i1 %12, label %.preheader, label %.preheader12

.preheader12:                                     ; preds = %2
  %15 = zext i32 %14 to i64
  %16 = add nuw nsw i64 %1, %15
  %17 = icmp samesign ugt i64 %16, %11
  br i1 %17, label %.lr.ph, label %._crit_edge

.preheader:                                       ; preds = %2
  %.not14 = icmp eq i32 %14, 0
  br i1 %.not14, label %.loopexit, label %.lr.ph15

.lr.ph15:                                         ; preds = %.preheader, %.lr.ph15
  tail call void @_ZN9grpc_core17HPackEncoderTable8EvictOneEv(ptr noundef nonnull align 8 dereferenceable(40) %0)
  %18 = load i32, ptr %13, align 4, !tbaa !16
  %.not = icmp eq i32 %18, 0
  br i1 %.not, label %.loopexit, label %.lr.ph15, !llvm.loop !17

.lr.ph:                                           ; preds = %.preheader12, %.lr.ph
  tail call void @_ZN9grpc_core17HPackEncoderTable8EvictOneEv(ptr noundef nonnull align 8 dereferenceable(40) %0)
  %19 = load i32, ptr %13, align 4, !tbaa !16
  %20 = zext i32 %19 to i64
  %21 = add nuw nsw i64 %1, %20
  %22 = load i32, ptr %9, align 4, !tbaa !15
  %23 = zext i32 %22 to i64
  %24 = icmp samesign ugt i64 %21, %23
  br i1 %24, label %.lr.ph, label %._crit_edge.loopexit, !llvm.loop !19

._crit_edge.loopexit:                             ; preds = %.lr.ph
  %.pre = load i32, ptr %5, align 8, !tbaa !14
  br label %._crit_edge

._crit_edge:                                      ; preds = %._crit_edge.loopexit, %.preheader12
  %25 = phi i32 [ %6, %.preheader12 ], [ %.pre, %._crit_edge.loopexit ]
  %.lcssa = phi i32 [ %14, %.preheader12 ], [ %19, %._crit_edge.loopexit ]
  %26 = zext i32 %25 to i64
  %27 = getelementptr inbounds nuw i8, ptr %0, i64 16
  %28 = getelementptr inbounds nuw i8, ptr %0, i64 24
  %29 = load ptr, ptr %28, align 8, !tbaa !20
  %30 = load ptr, ptr %27, align 8, !tbaa !21
  %31 = ptrtoint ptr %29 to i64
  %32 = ptrtoint ptr %30 to i64
  %33 = sub i64 %31, %32
  %34 = ashr exact i64 %33, 1
  %.not.not = icmp ugt i64 %34, %26
  br i1 %.not.not, label %.critedge, label %35, !prof !22

35:                                               ; preds = %._crit_edge
  call void @llvm.lifetime.start.p0(i64 16, ptr nonnull %3) #9
  call void @_ZN4absl12lts_2024072212log_internal15LogMessageFatalC1EPKciSt17basic_string_viewIcSt11char_traitsIcEE(ptr noundef nonnull align 8 dereferenceable(16) %3, ptr noundef nonnull @.str, i32 noundef 44, i64 32, ptr nonnull @.str.1) #10
  call void @_ZN4absl12lts_2024072212log_internal15LogMessageFatalD1Ev(ptr noundef nonnull align 8 dereferenceable(16) %3) #11
  unreachable

.critedge:                                        ; preds = %._crit_edge
  %36 = trunc i64 %1 to i16
  %37 = zext i32 %8 to i64
  %38 = urem i64 %37, %34
  %39 = getelementptr inbounds nuw i16, ptr %30, i64 %38
  store i16 %36, ptr %39, align 2, !tbaa !23
  %40 = trunc i64 %1 to i32
  %41 = add i32 %.lcssa, %40
  store i32 %41, ptr %13, align 4, !tbaa !16
  %42 = add i32 %25, 1
  store i32 %42, ptr %5, align 8, !tbaa !14
  br label %.loopexit

.loopexit:                                        ; preds = %.lr.ph15, %.preheader, %.critedge
  %.010 = phi i32 [ %8, %.critedge ], [ 0, %.preheader ], [ 0, %.lr.ph15 ]
  ret i32 %.010
}